; Function Attrs: mustprogress uwtable
define hidden void @_ZNK7pb_util5get_kEP9func_decl(ptr dead_on_unwind noalias writable sret(%class.rational) align 8 %0, ptr noundef nonnull readonly align 8 captures(none) dereferenceable(64) %1, ptr noundef readonly captures(none) %2) local_unnamed_addr #3 align 2 {
_ZNK4decl13get_family_idEv.exit.thread.i.i:
  %3 = getelementptr inbounds nuw i8, ptr %2, i64 24
  %4 = load ptr, ptr %3, align 8, !tbaa !180
  %5 = getelementptr inbounds nuw i8, ptr %4, i64 8
  %6 = load ptr, ptr %5, align 8, !tbaa !91
  tail call void @_ZNK7pb_util11to_rationalERK9parameter(ptr dead_on_unwind writable sret(%class.rational) align 8 %0, ptr nonnull align 8 poison, ptr noundef nonnull align 8 dereferenceable(16) %6)
  ret void
}